target datalayout = "e-m:e-p270:32:32-p271:32:32-p272:64:64-i64:64-i128:128-f80:128-n8:16:32:64-S128"
target triple = "x86_64-pc-linux-gnu"

@.str = private unnamed_addr constant [2 x i8] c"1\00", align 1
@.str.1 = private unnamed_addr constant [3 x i8] c"11\00", align 1
@.str.2 = private unnamed_addr constant [4 x i8] c"111\00", align 1
@.str.3 = private unnamed_addr constant [4 x i8] c"112\00", align 1
@.str.4 = private unnamed_addr constant [5 x i8] c"1112\00", align 1
@.str.5 = private unnamed_addr constant [5 x i8] c"1113\00", align 1
@.str.6 = private unnamed_addr constant [5 x i8] c"1114\00", align 1
@.str.7 = private unnamed_addr constant [5 x i8] c"1124\00", align 1
@.str.8 = private unnamed_addr constant [6 x i8] c"11124\00", align 1
@.str.9 = private unnamed_addr constant [6 x i8] c"11125\00", align 1
@.str.10 = private unnamed_addr constant [6 x i8] c"11126\00", align 1
@.str.11 = private unnamed_addr constant [6 x i8] c"11136\00", align 1
@.str.12 = private unnamed_addr constant [6 x i8] c"11137\00", align 1
@.str.13 = private unnamed_addr constant [6 x i8] c"11147\00", align 1
@.str.14 = private unnamed_addr constant [6 x i8] c"11148\00", align 1
@.str.15 = private unnamed_addr constant [6 x i8] c"11248\00", align 1

; Function Attrs: nounwind uwtable
define ptr @Wlc_NtkMuxTreeString(i32 noundef %0) #0 {
  %2 = alloca ptr, align 8
  %3 = alloca i32, align 4
  store i32 %0, ptr %3, align 4, !tbaa !8
  %4 = load i32, ptr %3, align 4, !tbaa !8
  %5 = icmp eq i32 %4, 1
  br i1 %5, label %6, label %7

6:                                                ; preds = %1
  store ptr @.str, ptr %2, align 8
  br label %68

7:                                                ; preds = %1
  %8 = load i32, ptr %3, align 4, !tbaa !8
  %9 = icmp eq i32 %8, 2
  br i1 %9, label %10, label %11

10:                                               ; preds = %7
  store ptr @.str.1, ptr %2, align 8
  br label %68

11:                                               ; preds = %7
  %12 = load i32, ptr %3, align 4, !tbaa !8
  %13 = icmp eq i32 %12, 3
  br i1 %13, label %14, label %15

14:                                               ; preds = %11
  store ptr @.str.2, ptr %2, align 8
  br label %68

15:                                               ; preds = %11
  %16 = load i32, ptr %3, align 4, !tbaa !8
  %17 = icmp eq i32 %16, 4
  br i1 %17, label %18, label %19

18:                                               ; preds = %15
  store ptr @.str.3, ptr %2, align 8
  br label %68

19:                                               ; preds = %15
  %20 = load i32, ptr %3, align 4, !tbaa !8
  %21 = icmp eq i32 %20, 5
  br i1 %21, label %22, label %23

22:                                               ; preds = %19
  store ptr @.str.4, ptr %2, align 8
  br label %68

23:                                               ; preds = %19
  %24 = load i32, ptr %3, align 4, !tbaa !8
  %25 = icmp eq i32 %24, 6
  br i1 %25, label %26, label %27

26:                                               ; preds = %23
  store ptr @.str.5, ptr %2, align 8
  br label %68

27:                                               ; preds = %23
  %28 = load i32, ptr %3, align 4, !tbaa !8
  %29 = icmp eq i32 %28, 7
  br i1 %29, label %30, label %31

30:                                               ; preds = %27
  store ptr @.str.6, ptr %2, align 8
  br label %68

31:                                               ; preds = %27
  %32 = load i32, ptr %3, align 4, !tbaa !8
  %33 = icmp eq i32 %32, 8
  br i1 %33, label %34, label %35

34:                                               ; preds = %31
  store ptr @.str.7, ptr %2, align 8
  br label %68

35:                                               ; preds = %31
  %36 = load i32, ptr %3, align 4, !tbaa !8
  %37 = icmp eq i32 %36, 9
  br i1 %37, label %38, label %39

38:                                               ; preds = %35
  store ptr @.str.8, ptr %2, align 8
  br label %68

39:                                               ; preds = %35
  %40 = load i32, ptr %3, align 4, !tbaa !8
  %41 = icmp eq i32 %40, 10
  br i1 %41, label %42, label %43

42:                                               ; preds = %39
  store ptr @.str.9, ptr %2, align 8
  br label %68

43:                                               ; preds = %39
  %44 = load i32, ptr %3, align 4, !tbaa !8
  %45 = icmp eq i32 %44, 11
  br i1 %45, label %46, label %47

46:                                               ; preds = %43
  store ptr @.str.10, ptr %2, align 8
  br label %68

47:                                               ; preds = %43
  %48 = load i32, ptr %3, align 4, !tbaa !8
  %49 = icmp eq i32 %48, 12
  br i1 %49, label %50, label %51

50:                                               ; preds = %47
  store ptr @.str.11, ptr %2, align 8
  br label %68

51:                                               ; preds = %47
  %52 = load i32, ptr %3, align 4, !tbaa !8
  %53 = icmp eq i32 %52, 13
  br i1 %53, label %54, label %55

54:                                               ; preds = %51
  store ptr @.str.12, ptr %2, align 8
  br label %68

55:                                               ; preds = %51
  %56 = load i32, ptr %3, align 4, !tbaa !8
  %57 = icmp eq i32 %56, 14
  br i1 %57, label %58, label %59

58:                                               ; preds = %55
  store ptr @.str.13, ptr %2, align 8
  br label %68

59:                                               ; preds = %55
  %60 = load i32, ptr %3, align 4, !tbaa !8
  %61 = icmp eq i32 %60, 15
  br i1 %61, label %62, label %63

62:                                               ; preds = %59
  store ptr @.str.14, ptr %2, align 8
  br label %68

63:                                               ; preds = %59
  %64 = load i32, ptr %3, align 4, !tbaa !8
  %65 = icmp eq i32 %64, 16
  br i1 %65, label %66, label %67

66:                                               ; preds = %63
  store ptr @.str.15, ptr %2, align 8
  br label %68

67:                                               ; preds = %63
  store ptr null, ptr %2, align 8
  br label %68

68:                                               ; preds = %67, %66, %62, %58, %54, %50, %46, %42, %38, %34, %30, %26, %22, %18, %14, %10, %6
  %69 = load ptr, ptr %2, align 8
  ret ptr %69
}